; Function Attrs: nounwind sspstrong uwtable
define dso_local void @cpu_single_step(ptr noundef captures(none) %0, i32 noundef %1) local_unnamed_addr #0 {
  %3 = alloca %struct.timeval, align 8
  %4 = getelementptr inbounds nuw i8, ptr %0, i64 212
  %5 = load i32, ptr %4, align 4
  %.not = icmp eq i32 %5, %1
  br i1 %.not, label %trace_breakpoint_singlestep.exit, label %6

6:                                                ; preds = %2
  store i32 %1, ptr %4, align 4
  %7 = getelementptr inbounds nuw i8, ptr %0, i64 704
  %8 = load i32, ptr %7, align 16
  %9 = load i32, ptr @trace_events_enabled_count, align 4
  %.not.i.i = icmp eq i32 %9, 0
  br i1 %.not.i.i, label %trace_breakpoint_singlestep.exit, label %10, !prof !6

10:                                               ; preds = %6
  %11 = load i16, ptr @_TRACE_BREAKPOINT_SINGLESTEP_DSTATE, align 2
  %.not4.i.i = icmp eq i16 %11, 0
  br i1 %.not4.i.i, label %trace_breakpoint_singlestep.exit, label %12

12:                                               ; preds = %10
  %13 = load i32, ptr @qemu_loglevel, align 4
  %14 = and i32 %13, 32768
  %.not5.i.i = icmp eq i32 %14, 0
  br i1 %.not5.i.i, label %trace_breakpoint_singlestep.exit, label %15

15:                                               ; preds = %12
  %16 = load i8, ptr @message_with_timestamp, align 1, !range !4, !noundef !5
  %17 = trunc nuw i8 %16 to i1
  br i1 %17, label %18, label %24

18:                                               ; preds = %15
  call void @llvm.lifetime.start.p0(i64 16, ptr nonnull %3) #17
  call void @llvm.memset.p0.i64(ptr noundef nonnull align 8 dereferenceable(16) %3, i8 0, i64 16, i1 false), !annotation !7
  %19 = call i32 @gettimeofday(ptr noundef nonnull %3, ptr noundef null) #17
  %20 = tail call i32 @qemu_get_thread_id() #17
  %21 = load i64, ptr %3, align 8
  %22 = getelementptr inbounds nuw i8, ptr %3, i64 8
  %23 = load i64, ptr %22, align 8
  tail call void (ptr, ...) @qemu_log(ptr noundef nonnull @.str.20, i32 noundef %20, i64 noundef %21, i64 noundef %23, i32 noundef %8, i32 noundef %1) #17
  call void @llvm.lifetime.end.p0(i64 16, ptr nonnull %3) #17
  br label %trace_breakpoint_singlestep.exit

24:                                               ; preds = %15
  tail call void (ptr, ...) @qemu_log(ptr noundef nonnull @.str.21, i32 noundef %8, i32 noundef %1) #17
  br label %trace_breakpoint_singlestep.exit

trace_breakpoint_singlestep.exit:                 ; preds = %24, %18, %12, %10, %6, %2
  ret void
}